; Function Attrs: nounwind sspstrong uwtable
define internal noundef zeroext i1 @opts_type_str(ptr noundef readonly captures(none) %v, ptr noundef %name, ptr noundef writeonly captures(none) initializes((0, 8)) %obj, ptr noundef %errp) #0 {
entry:
  %call1 = tail call fastcc ptr @lookup_scalar(ptr noundef %v, ptr noundef %name, ptr noundef %errp)
  %tobool.not = icmp ne ptr %call1, null
  br i1 %tobool.not, label %if.end, label %if.then

if.then:                                          ; preds = %entry
  store ptr null, ptr %obj, align 8
  br label %return

if.end:                                           ; preds = %entry
  %str = getelementptr inbounds nuw i8, ptr %call1, i64 8
  %0 = load ptr, ptr %str, align 8
  %tobool2.not = icmp eq ptr %0, null
  %spec.select = select i1 %tobool2.not, ptr @.str.9, ptr %0
  %call4 = tail call noalias ptr @g_strdup(ptr noundef nonnull %spec.select) #10
  store ptr %call4, ptr %obj, align 8
  %list_mode.i = getelementptr inbounds nuw i8, ptr %v, i64 240
  %1 = load i32, ptr %list_mode.i, align 8
  switch i32 %1, label %if.else.i [
    i32 0, label %if.then.i
    i32 1, label %return
  ]

if.then.i:                                        ; preds = %if.end
  %unprocessed_opts.i = getelementptr inbounds nuw i8, ptr %v, i64 232
  %2 = load ptr, ptr %unprocessed_opts.i, align 8
  %call.i = tail call i32 @g_hash_table_remove(ptr noundef %2, ptr noundef %name) #10
  br label %return

if.else.i:                                        ; preds = %if.end
  tail call void @__assert_fail(ptr noundef nonnull @.str.15, ptr noundef nonnull @.str.1, i32 noundef 344, ptr noundef nonnull @__PRETTY_FUNCTION__.processed) #8
  unreachable

return:                                           ; preds = %if.then.i, %if.end, %if.then
  ret i1 %tobool.not
}